; Function Attrs: mustprogress uwtable
define dso_local noundef zeroext i1 @_ZN25cmInstallCommandArguments16CheckPermissionsERKNSt7__cxx1112basic_stringIcSt11char_traitsIcESaIcEEERS5_(ptr noundef nonnull align 8 dereferenceable(32) %0, ptr noundef nonnull align 8 dereferenceable(32) %1) local_unnamed_addr #5 align 2 {
  %3 = load ptr, ptr @_ZN25cmInstallCommandArguments16PermissionsTableE, align 16, !tbaa !68
  %.not13.not = icmp eq ptr %3, null
  br i1 %.not13.not, label %.loopexit, label %.lr.ph

4:                                                ; preds = %.lr.ph
  %5 = getelementptr inbounds nuw i8, ptr %.0814, i64 8
  %6 = load ptr, ptr %5, align 8, !tbaa !68
  %.not.not = icmp eq ptr %6, null
  br i1 %.not.not, label %.loopexit, label %.lr.ph, !llvm.loop !69

.lr.ph:                                           ; preds = %2, %4
  %7 = phi ptr [ %6, %4 ], [ %3, %2 ]
  %.0814 = phi ptr [ %5, %4 ], [ @_ZN25cmInstallCommandArguments16PermissionsTableE, %2 ]
  %8 = tail call noundef i32 @_ZNKSt7__cxx1112basic_stringIcSt11char_traitsIcESaIcEE7compareEPKc(ptr noundef nonnull align 8 dereferenceable(32) %0, ptr noundef nonnull %7) #25
  %9 = icmp eq i32 %8, 0
  br i1 %9, label %10, label %4

10:                                               ; preds = %.lr.ph
  %11 = getelementptr inbounds nuw i8, ptr %1, i64 8
  %12 = load i64, ptr %11, align 8, !tbaa !10
  %13 = icmp eq i64 %12, 4611686018427387903
  br i1 %13, label %14, label %_ZNSt7__cxx1112basic_stringIcSt11char_traitsIcESaIcEEpLEPKc.exit

14:                                               ; preds = %10
  tail call void @_ZSt20__throw_length_errorPKc(ptr noundef nonnull @.str.29) #29
  unreachable

_ZNSt7__cxx1112basic_stringIcSt11char_traitsIcESaIcEEpLEPKc.exit: ; preds = %10
  %15 = tail call noundef nonnull align 8 dereferenceable(32) ptr @_ZNSt7__cxx1112basic_stringIcSt11char_traitsIcESaIcEE9_M_appendEPKcm(ptr noundef nonnull align 8 dereferenceable(32) %1, ptr noundef nonnull @.str.25, i64 noundef 1)
  %16 = getelementptr inbounds nuw i8, ptr %0, i64 8
  %17 = load i64, ptr %16, align 8, !tbaa !10
  %18 = load i64, ptr %11, align 8, !tbaa !10
  %19 = sub i64 4611686018427387903, %18
  %20 = icmp ult i64 %19, %17
  br i1 %20, label %21, label %_ZNSt7__cxx1112basic_stringIcSt11char_traitsIcESaIcEEpLERKS4_.exit

21:                                               ; preds = %_ZNSt7__cxx1112basic_stringIcSt11char_traitsIcESaIcEEpLEPKc.exit
  tail call void @_ZSt20__throw_length_errorPKc(ptr noundef nonnull @.str.29) #29
  unreachable

_ZNSt7__cxx1112basic_stringIcSt11char_traitsIcESaIcEEpLERKS4_.exit: ; preds = %_ZNSt7__cxx1112basic_stringIcSt11char_traitsIcESaIcEEpLEPKc.exit
  %22 = load ptr, ptr %0, align 8, !tbaa !42
  %23 = tail call noundef nonnull align 8 dereferenceable(32) ptr @_ZNSt7__cxx1112basic_stringIcSt11char_traitsIcESaIcEE9_M_appendEPKcm(ptr noundef nonnull align 8 dereferenceable(32) %1, ptr noundef %22, i64 noundef %17)
  br label %.loopexit

.loopexit:                                        ; preds = %4, %2, %_ZNSt7__cxx1112basic_stringIcSt11char_traitsIcESaIcEEpLERKS4_.exit
  %.not12 = phi i1 [ true, %_ZNSt7__cxx1112basic_stringIcSt11char_traitsIcESaIcEEpLERKS4_.exit ], [ false, %2 ], [ false, %4 ]
  ret i1 %.not12
}